; Function Attrs: mustprogress uwtable
define void @_ZN8proxygen13HTTPExceptionC2ENS0_9DirectionERKNSt7__cxx1112basic_stringIcSt11char_traitsIcESaIcEEE(ptr noundef nonnull align 8 dereferenceable(96) %this, i32 noundef %dir, ptr noundef nonnull align 8 dereferenceable(32) %msg) unnamed_addr #2 align 2 personality ptr @__gxx_personality_v0 {
entry:
  tail call void @_ZN8proxygen9ExceptionC2ERKNSt7__cxx1112basic_stringIcSt11char_traitsIcESaIcEEE(ptr noundef nonnull align 8 dereferenceable(48) %this, ptr noundef nonnull align 8 dereferenceable(32) %msg)
  store ptr getelementptr inbounds ({ [5 x ptr] }, ptr @_ZTVN8proxygen13HTTPExceptionE, i64 0, i32 0, i64 2), ptr %this, align 8
  %dir_ = getelementptr inbounds i8, ptr %this, i64 48
  store i32 %dir, ptr %dir_, align 8
  %httpStatusCode_ = getelementptr inbounds i8, ptr %this, i64 52
  store i32 0, ptr %httpStatusCode_, align 4
  %http3ErrorCode_ = getelementptr inbounds i8, ptr %this, i64 56
  store i8 0, ptr %http3ErrorCode_, align 8
  %hasValue.i.i = getelementptr inbounds i8, ptr %this, i64 64
  store i8 0, ptr %hasValue.i.i, align 8
  %codecStatusCode_ = getelementptr inbounds i8, ptr %this, i64 72
  store i8 0, ptr %codecStatusCode_, align 8
  %hasValue.i.i1 = getelementptr inbounds i8, ptr %this, i64 73
  store i8 0, ptr %hasValue.i.i1, align 1
  %errno_ = getelementptr inbounds i8, ptr %this, i64 76
  tail call void @llvm.memset.p0.i64(ptr noundef nonnull align 4 dereferenceable(20) %errno_, i8 0, i64 20, i1 false)
  ret void
}